; Function Attrs: nounwind uwtable
define ptr @l_List_forIn_x27_loop___at_Lean_Server_Test_Runner_main___spec__32___lambda__4___boxed(ptr noundef %0, ptr noundef %1, ptr noundef %2, ptr noundef %3, ptr noundef %4, ptr noundef %5, ptr noundef %6, ptr noundef %7, ptr noundef %8, ptr noundef %9) local_unnamed_addr #1 {
  %11 = ptrtoint ptr %6 to i64
  %12 = and i64 %11, 1
  %.not = icmp eq i64 %12, 0
  br i1 %.not, label %13, label %lean_dec.exit15

13:                                               ; preds = %10
  %14 = load i32, ptr %6, align 4, !tbaa !8
  %15 = icmp sgt i32 %14, 1
  br i1 %15, label %16, label %18, !prof !11

16:                                               ; preds = %13
  %17 = add nsw i32 %14, -1
  store i32 %17, ptr %6, align 4, !tbaa !8
  br label %lean_dec.exit15

18:                                               ; preds = %13
  %.not.i = icmp eq i32 %14, 0
  br i1 %.not.i, label %lean_dec.exit15, label %19

19:                                               ; preds = %18
  tail call void @lean_dec_ref_cold(ptr noundef nonnull %6) #6
  br label %lean_dec.exit15

lean_dec.exit15:                                  ; preds = %19, %18, %16, %10
  %20 = ptrtoint ptr %5 to i64
  %21 = and i64 %20, 1
  %.not.i20 = icmp eq i64 %21, 0
  br i1 %.not.i20, label %.critedge.i.i, label %22, !prof !16

22:                                               ; preds = %lean_dec.exit15
  %23 = lshr i64 %20, 1
  %24 = add nuw i64 %23, 1
  %25 = icmp sgt i64 %24, -1
  br i1 %25, label %26, label %30, !prof !11

26:                                               ; preds = %22
  %27 = shl nuw i64 %24, 1
  %28 = or disjoint i64 %27, 1
  %29 = inttoptr i64 %28 to ptr
  br label %l_List_forIn_x27_loop___at_Lean_Server_Test_Runner_main___spec__32___lambda__4.exit

30:                                               ; preds = %22
  %31 = tail call ptr @lean_big_usize_to_nat(i64 noundef range(i64 0, -1) %24) #6
  br label %l_List_forIn_x27_loop___at_Lean_Server_Test_Runner_main___spec__32___lambda__4.exit

.critedge.i.i:                                    ; preds = %lean_dec.exit15
  %32 = tail call ptr @lean_nat_big_add(ptr noundef %5, ptr noundef nonnull inttoptr (i64 3 to ptr)) #6
  br label %l_List_forIn_x27_loop___at_Lean_Server_Test_Runner_main___spec__32___lambda__4.exit

l_List_forIn_x27_loop___at_Lean_Server_Test_Runner_main___spec__32___lambda__4.exit: ; preds = %26, %30, %.critedge.i.i
  %.0.i.i = phi ptr [ %32, %.critedge.i.i ], [ %29, %26 ], [ %31, %30 ]
  %33 = tail call ptr @lean_apply_9(ptr noundef %0, ptr noundef %1, ptr noundef %2, ptr noundef %.0.i.i, ptr noundef %3, ptr noundef nonnull inttoptr (i64 3 to ptr), ptr noundef %4, ptr noundef nonnull inttoptr (i64 1 to ptr), ptr noundef %8, ptr noundef %9) #6
  %34 = ptrtoint ptr %7 to i64
  %35 = and i64 %34, 1
  %.not21 = icmp eq i64 %35, 0
  br i1 %.not21, label %36, label %lean_dec.exit14

36:                                               ; preds = %l_List_forIn_x27_loop___at_Lean_Server_Test_Runner_main___spec__32___lambda__4.exit
  %37 = load i32, ptr %7, align 4, !tbaa !8
  %38 = icmp sgt i32 %37, 1
  br i1 %38, label %39, label %41, !prof !11

39:                                               ; preds = %36
  %40 = add nsw i32 %37, -1
  store i32 %40, ptr %7, align 4, !tbaa !8
  br label %lean_dec.exit14

41:                                               ; preds = %36
  %.not.i16 = icmp eq i32 %37, 0
  br i1 %.not.i16, label %lean_dec.exit14, label %42

42:                                               ; preds = %41
  tail call void @lean_dec_ref_cold(ptr noundef nonnull %7) #6
  br label %lean_dec.exit14

lean_dec.exit14:                                  ; preds = %42, %41, %39, %l_List_forIn_x27_loop___at_Lean_Server_Test_Runner_main___spec__32___lambda__4.exit
  br i1 %.not.i20, label %43, label %lean_dec.exit

43:                                               ; preds = %lean_dec.exit14
  %44 = load i32, ptr %5, align 4, !tbaa !8
  %45 = icmp sgt i32 %44, 1
  br i1 %45, label %46, label %48, !prof !11

46:                                               ; preds = %43
  %47 = add nsw i32 %44, -1
  store i32 %47, ptr %5, align 4, !tbaa !8
  br label %lean_dec.exit

48:                                               ; preds = %43
  %.not.i18 = icmp eq i32 %44, 0
  br i1 %.not.i18, label %lean_dec.exit, label %49

49:                                               ; preds = %48
  tail call void @lean_dec_ref_cold(ptr noundef nonnull %5) #6
  br label %lean_dec.exit

lean_dec.exit:                                    ; preds = %49, %48, %46, %lean_dec.exit14
  ret ptr %33
}